Certificate:
    Data:
        Version: 3 (0x2)
        Serial Number:
            04:92:f6:c6:f8:42:2f:7b:35:8a:6b:cb:67:28:45:64:c1:f0
    Signature Algorithm: sha256WithRSAEncryption
        Issuer: C=US, O=Let's Encrypt, CN=Let's Encrypt Authority X3
        Validity
            Not Before: May  8 05:11:33 2020 GMT
            Not After : Aug  6 05:11:33 2020 GMT
        Subject: CN=sean.taipei
        Subject Public Key Info:
            Public Key Algorithm: rsaEncryption
                Public-Key: (2048 bit)
                Modulus:
                    00:ca:54:43:db:bf:18:a8:30:ee:80:19:b6:6a:45:
                    c1:d9:e4:37:ed:95:9e:e3:7b:ad:19:38:6b:e2:b5:
                    17:d2:e2:3c:83:ea:cc:5b:d1:48:92:e1:17:5b:13:
                    c4:bf:54:12:7a:ea:6f:5a:6c:8d:2d:41:65:60:03:
                    a2:3d:8e:0b:da:2c:93:2e:4b:b9:5a:f4:02:54:d0:
                    42:d5:f3:1c:97:cd:81:b2:f6:67:dc:68:83:bb:de:
                    28:4d:f6:0f:0d:81:b3:a6:fa:f2:27:1b:31:54:a6:
                    c2:57:89:49:53:2e:35:c9:75:23:46:f3:64:ba:46:
                    d9:7e:bc:fa:9f:3c:f0:4f:1f:62:e8:1e:e5:96:00:
                    9b:86:33:48:bc:78:60:9c:c3:8b:ab:23:85:06:27:
                    3f:c7:52:eb:15:d5:d3:7d:34:cd:d4:b7:0a:c4:8b:
                    b4:18:df:82:70:29:87:7d:93:e0:ed:e6:e0:04:66:
                    55:06:c7:e1:c3:84:b2:e2:4c:62:db:cc:82:32:74:
                    76:dd:4e:53:5b:01:26:f0:61:c2:56:eb:c8:af:24:
                    01:a9:8e:1c:01:52:7c:9e:0d:3c:a1:f1:dd:6d:1e:
                    a5:90:9d:e3:66:bc:60:16:45:9a:06:65:eb:ce:04:
                    76:a1:12:e5:de:b4:a5:b7:f7:4f:45:05:fb:9c:0a:
                    e8:bd
                Exponent: 65537 (0x10001)
        X509v3 extensions:
            X509v3 Key Usage: critical
                Digital Signature, Key Encipherment
            X509v3 Extended Key Usage: 
                TLS Web Server Authentication, TLS Web Client Authentication
            X509v3 Basic Constraints: critical
                CA:FALSE
            X509v3 Subject Key Identifier: 
                DD:1A:5D:7D:1E:44:0F:08:20:22:1C:B1:17:AA:A3:68:EA:68:61:16
            X509v3 Authority Key Identifier: 
                keyid:A8:4A:6A:63:04:7D:DD:BA:E6:D1:39:B7:A6:45:65:EF:F3:A8:EC:A1

            Authority Information Access: 
                OCSP - URI:http://ocsp.int-x3.letsencrypt.org
                CA Issuers - URI:http://cert.int-x3.letsencrypt.org/

            X509v3 Subject Alternative Name: 
                DNS:mail.sean.taipei, DNS:sean.cat, DNS:sean.taipei, DNS:telegre.at, DNS:tlgr.tw
            X509v3 Certificate Policies: 
                Policy: 2.23.140.1.2.1
                Policy: 1.3.6.1.4.1.44947.1.1.1
                  CPS: http://cps.letsencrypt.org

            1.3.6.1.4.1.11129.2.4.2: 
                ......u.^.s..V...6H}.I.2z.........u..qEX...q.........F0D. Eo............V....=w.l....M..... .=S...4.>...@;1.......?.v..zq.
}.v......... N.f.+..% gk..p..IS-...^...q.........G0E.!.......o..0.O.B...f....c>.W...pp.. .@$-'+^.7.B.......d..
.}..x+....
    Signature Algorithm: sha256WithRSAEncryption
         5b:ff:aa:d9:f0:0e:59:de:01:d8:7b:0c:a1:c9:b1:f2:20:e5:
         6c:98:58:06:a8:0d:31:ee:83:82:20:ac:03:72:d4:08:cb:11:
         9f:24:42:9b:42:b1:1f:93:f1:0a:36:8d:04:a4:e0:74:e7:eb:
         04:00:37:ad:69:db:73:2e:3e:7f:48:74:2f:21:4a:39:42:37:
         9b:da:bf:9c:60:fe:dd:ef:2d:37:67:b3:ec:38:31:c6:40:ea:
         05:cd:f2:7a:41:b6:be:fa:3e:ec:04:e3:7f:cc:9e:d0:ac:ce:
         c9:51:d9:ad:5a:4a:28:88:12:c0:b9:aa:02:08:cc:68:8b:d0:
         98:e4:e2:1d:7d:2e:c0:91:7a:d4:7b:14:f4:f4:81:cb:94:07:
         a6:95:d9:6b:30:cf:e1:80:01:48:08:99:7c:d7:40:4f:bb:de:
         91:11:70:19:c9:e3:f1:9f:bf:74:33:f8:bf:d6:eb:b8:77:f4:
         d6:84:80:37:85:c0:dc:61:c4:73:10:d2:4b:21:73:c7:43:01:
         75:1c:2e:1b:6d:ce:39:e7:eb:74:71:27:30:b5:0c:f1:78:11:
         5b:e1:9c:ff:c8:3e:4f:0d:ae:56:82:2f:a7:11:8e:8b:1b:c9:
         92:3d:91:48:a5:fe:14:d5:10:70:53:41:31:e1:70:4d:53:0a:
         99:8c:65:96
-----BEGIN CERTIFICATE-----
MIIFfjCCBGagAwIBAgISBJL2xvhCL3s1imvLZyhFZMHwMA0GCSqGSIb3DQEBCwUA
MEoxCzAJBgNVBAYTAlVTMRYwFAYDVQQKEw1MZXQncyBFbmNyeXB0MSMwIQYDVQQD
ExpMZXQncyBFbmNyeXB0IEF1dGhvcml0eSBYMzAeFw0yMDA1MDgwNTExMzNaFw0y
MDA4MDYwNTExMzNaMBYxFDASBgNVBAMTC3NlYW4udGFpcGVpMIIBIjANBgkqhkiG
9w0BAQEFAAOCAQ8AMIIBCgKCAQEAylRD278YqDDugBm2akXB2eQ37ZWe43utGThr
4rUX0uI8g+rMW9FIkuEXWxPEv1QSeupvWmyNLUFlYAOiPY4L2iyTLku5WvQCVNBC
1fMcl82BsvZn3GiDu94oTfYPDYGzpvryJxsxVKbCV4lJUy41yXUjRvNkukbZfrz6
nzzwTx9i6B7llgCbhjNIvHhgnMOLqyOFBic/x1LrFdXTfTTN1LcKxIu0GN+CcCmH
fZPg7ebgBGZVBsfhw4Sy4kxi28yCMnR23U5TWwEm8GHCVuvIryQBqY4cAVJ8ng08
ofHdbR6lkJ3jZrxgFkWaBmXrzgR2oRLl3rSlt/dPRQX7nArovQIDAQABo4ICkDCC
AowwDgYDVR0PAQH/BAQDAgWgMB0GA1UdJQQWMBQGCCsGAQUFBwMBBggrBgEFBQcD
AjAMBgNVHRMBAf8EAjAAMB0GA1UdDgQWBBTdGl19HkQPCCAiHLEXqqNo6mhhFjAf
BgNVHSMEGDAWgBSoSmpjBH3duubRObemRWXv86jsoTBvBggrBgEFBQcBAQRjMGEw
LgYIKwYBBQUHMAGGImh0dHA6Ly9vY3NwLmludC14My5sZXRzZW5jcnlwdC5vcmcw
LwYIKwYBBQUHMAKGI2h0dHA6Ly9jZXJ0LmludC14My5sZXRzZW5jcnlwdC5vcmcv
MEcGA1UdEQRAMD6CEG1haWwuc2Vhbi50YWlwZWmCCHNlYW4uY2F0ggtzZWFuLnRh
aXBlaYIKdGVsZWdyZS5hdIIHdGxnci50dzBMBgNVHSAERTBDMAgGBmeBDAECATA3
BgsrBgEEAYLfEwEBATAoMCYGCCsGAQUFBwIBFhpodHRwOi8vY3BzLmxldHNlbmNy
eXB0Lm9yZzCCAQMGCisGAQQB1nkCBAIEgfQEgfEA7wB1AF6nc/nfVsDntTZIfdBJ
4DJ6kZoMhKESEoQYdZaBcUVYAAABcfLpEqIAAAQDAEYwRAIgRW+J/53MEZWssukd
vP9WBn/C7D13lWydsQegTYKO0LUCIBE9UxvdpjQEPt7YyEA7MagYrh8EtZw/i3a7
k3pxjgp9AHYAsh4FzIuizYogTodm+Su5iiUgZ2va+nDnsklTLe+LkF4AAAFx8ukS
mgAABAMARzBFAiEAkb2C7YHYbxLQMOhPykLI1fxm+IXUoGM+91eh3ItwcJMCIBRA
JC0nK17cNwJChI3i9M633mS40Arrff2zeCunf9sFMA0GCSqGSIb3DQEBCwUAA4IB
AQBb/6rZ8A5Z3gHYewyhybHyIOVsmFgGqA0x7oOCIKwDctQIyxGfJEKbQrEfk/EK
No0EpOB05+sEADetadtzLj5/SHQvIUo5Qjeb2r+cYP7d7y03Z7PsODHGQOoFzfJ6
Qba++j7sBON/zJ7QrM7JUdmtWkooiBLAuaoCCMxoi9CY5OIdfS7AkXrUexT09IHL
lAemldlrMM/hgAFICJl810BPu96REXAZyePxn790M/i/1uu4d/TWhIA3hcDcYcRz
ENJLIXPHQwF1HC4bbc455+t0cScwtQzxeBFb4Zz/yD5PDa5Wgi+nEY6LG8mSPZFI
pf4U1RBwU0Ex4XBNUwqZjGWW
-----END CERTIFICATE-----
